Certificate:
    Data:
        Version: 3 (0x2)
        Serial Number: 268435668 (0x100000d4)
        Signature Algorithm: sha256WithRSAEncryption
        Issuer: C=DE, ST=Hessen, O=privacyidea, CN=CA001
        Validity
            Not Before: Jul 28 07:17:04 2022 GMT
            Not After : Jul 28 07:17:04 2023 GMT
        Subject: CN=cn=cornelius
        Subject Public Key Info:
            Public Key Algorithm: rsaEncryption
                RSA Public-Key: (2048 bit)
                Modulus:
                    00:ce:a4:39:30:25:73:e4:9d:e6:37:3b:85:59:83:
                    ef:a3:6e:f9:83:b9:f7:48:b0:0b:d5:e8:05:40:61:
                    cd:c5:5a:bc:11:2f:5b:4e:d0:4f:b8:d0:e8:7f:05:
                    ab:ad:24:0b:90:d4:3f:60:ec:15:b6:4e:be:8e:d9:
                    26:ab:f2:2f:7f:35:c2:a6:a1:bc:52:3a:d9:88:fb:
                    b3:fa:71:20:b9:51:0e:f8:af:0d:16:be:bd:5d:b9:
                    ab:30:d5:ac:6b:3c:bc:ee:28:4a:4f:6f:d4:09:15:
                    f7:98:af:77:db:36:15:2e:1e:ee:0f:d0:d9:60:ad:
                    db:b9:c4:3f:c6:25:32:f9:e3:e9:50:b8:ec:84:a0:
                    c4:d2:9c:fd:ce:25:80:85:7e:3a:ad:4c:a7:40:1b:
                    0a:58:18:9f:c2:5e:36:e1:d1:44:e9:46:b6:dc:b4:
                    28:a2:ec:ed:02:f7:25:79:e1:86:8e:69:67:52:ee:
                    82:21:b7:84:2d:cc:e7:a8:39:57:7d:a3:1e:e9:50:
                    63:77:29:ab:e4:a5:ff:dc:ee:4c:4b:5e:08:2b:62:
                    08:2d:75:b8:26:6c:93:eb:f5:45:ea:cd:83:58:53:
                    15:46:e6:6b:43:c1:2f:d9:88:4b:3d:d5:fd:0c:ff:
                    51:52:ed:54:fb:27:2d:59:ef:4c:50:ce:71:cd:eb:
                    5a:99
                Exponent: 65537 (0x10001)
        X509v3 extensions:
            X509v3 Key Usage: 
                Digital Signature, Key Encipherment
            X509v3 Basic Constraints: 
                CA:FALSE
            Netscape Cert Type: 
                SSL Server
            Netscape Comment: 
                OpenSSL Generated Server Certificate
            X509v3 Subject Key Identifier: 
                0E:D5:BA:4E:7D:92:57:15:FD:61:4E:34:5B:E9:62:D0:20:1C:7D:08
            X509v3 Authority Key Identifier: 
                keyid:F4:A7:C0:CC:91:46:AF:64:F3:91:F2:27:F8:C8:B2:6F:8A:87:32:73
                DirName:/C=DE/ST=Hessen/O=privacyidea/CN=CA001
                serial:FB:C8:EB:AC:83:CD:12:07

            X509v3 Extended Key Usage: 
                TLS Web Server Authentication
    Signature Algorithm: sha256WithRSAEncryption
         01:de:91:3b:75:e9:d1:34:50:2a:9b:27:70:c8:76:0d:06:5d:
         fd:7d:71:6e:3c:0d:c1:e8:7c:de:f3:20:5d:e2:8f:1b:d2:ad:
         9e:42:c3:01:29:92:c2:39:92:76:d7:34:d1:15:a7:db:2c:98:
         0d:9b:26:82:d8:ca:a7:6e:13:03:3c:e5:62:6d:fd:9a:9e:c3:
         d0:37:75:8b:62:24:15:83:e1:63:96:ca:70:bc:d3:26:1e:07:
         5e:71:ee:64:98:af:65:45:87:c9:6e:60:29:cb:57:e5:0b:bc:
         e4:2c:96:0f:33:d4:b2:d3:3a:33:8e:e5:07:ab:7d:b8:8f:12:
         28:aa:a3:4d:18:56:e0:ce:7a:37:96:e7:d9:3a:cd:0c:d2:19:
         e3:d1:2d:3a:46:cb:51:9b:87:49:73:48:52:21:f9:33:e8:f7:
         b3:c5:02:4d:0d:57:8a:27:46:fe:27:7e:60:d9:ed:a8:95:06:
         2a:87:7b:13:4d:0e:6f:53:2d:c6:5c:b3:63:46:24:5f:85:4b:
         16:0f:01:01:11:f3:32:23:86:46:98:64:fe:a7:14:a6:b7:ee:
         f2:7f:8a:05:c8:76:48:b0:aa:88:ce:aa:92:45:70:0d:aa:c6:
         bc:a1:7d:7b:68:e1:09:86:2d:2f:09:ef:0b:47:61:48:42:cd:
         8c:dc:cf:91
-----BEGIN CERTIFICATE-----
MIID6TCCAtGgAwIBAgIEEAAA1DANBgkqhkiG9w0BAQsFADBEMQswCQYDVQQGEwJE
RTEPMA0GA1UECAwGSGVzc2VuMRQwEgYDVQQKDAtwcml2YWN5aWRlYTEOMAwGA1UE
AwwFQ0EwMDEwHhcNMjIwNzI4MDcxNzA0WhcNMjMwNzI4MDcxNzA0WjAXMRUwEwYD
VQQDDAxjbj1jb3JuZWxpdXMwggEiMA0GCSqGSIb3DQEBAQUAA4IBDwAwggEKAoIB
AQDOpDkwJXPkneY3O4VZg++jbvmDufdIsAvV6AVAYc3FWrwRL1tO0E+40Oh/Baut
JAuQ1D9g7BW2Tr6O2Sar8i9/NcKmobxSOtmI+7P6cSC5UQ74rw0Wvr1duasw1axr
PLzuKEpPb9QJFfeYr3fbNhUuHu4P0Nlgrdu5xD/GJTL54+lQuOyEoMTSnP3OJYCF
fjqtTKdAGwpYGJ/CXjbh0UTpRrbctCii7O0C9yV54YaOaWdS7oIht4QtzOeoOVd9
ox7pUGN3Kavkpf/c7kxLXggrYggtdbgmbJPr9UXqzYNYUxVG5mtDwS/ZiEs91f0M
/1FS7VT7Jy1Z70xQznHN61qZAgMBAAGjggEOMIIBCjALBgNVHQ8EBAMCBaAwCQYD
VR0TBAIwADARBglghkgBhvhCAQEEBAMCBkAwMwYJYIZIAYb4QgENBCYWJE9wZW5T
U0wgR2VuZXJhdGVkIFNlcnZlciBDZXJ0aWZpY2F0ZTAdBgNVHQ4EFgQUDtW6Tn2S
VxX9YU40W+li0CAcfQgwdAYDVR0jBG0wa4AU9KfAzJFGr2TzkfIn+Miyb4qHMnOh
SKRGMEQxCzAJBgNVBAYTAkRFMQ8wDQYDVQQIDAZIZXNzZW4xFDASBgNVBAoMC3By
aXZhY3lpZGVhMQ4wDAYDVQQDDAVDQTAwMYIJAPvI66yDzRIHMBMGA1UdJQQMMAoG
CCsGAQUFBwMBMA0GCSqGSIb3DQEBCwUAA4IBAQAB3pE7denRNFAqmydwyHYNBl39
fXFuPA3B6Hze8yBd4o8b0q2eQsMBKZLCOZJ21zTRFafbLJgNmyaC2MqnbhMDPOVi
bf2ansPQN3WLYiQVg+FjlspwvNMmHgdece5kmK9lRYfJbmApy1flC7zkLJYPM9Sy
0zozjuUHq324jxIoqqNNGFbgzno3lufZOs0M0hnj0S06RstRm4dJc0hSIfkz6Pez
xQJNDVeKJ0b+J35g2e2olQYqh3sTTQ5vUy3GXLNjRiRfhUsWDwEBEfMyI4ZGmGT+
pxSmt+7yf4oFyHZIsKqIzqqSRXANqsa8oX17aOEJhi0vCe8LR2FIQs2M3M+R
-----END CERTIFICATE-----
