Certificate:
    Data:
        Version: 3 (0x2)
        Serial Number: 268435673 (0x100000d9)
        Signature Algorithm: sha256WithRSAEncryption
        Issuer: C=DE, ST=Hessen, O=privacyidea, CN=CA001
        Validity
            Not Before: Jul 28 07:28:03 2022 GMT
            Not After : Jul 28 07:28:03 2023 GMT
        Subject: OU=realm1, CN=cornelius/emailAddress=user@localhost.localdomain
        Subject Public Key Info:
            Public Key Algorithm: rsaEncryption
                RSA Public-Key: (2048 bit)
                Modulus:
                    00:cc:3e:6f:5a:f1:3b:ea:39:cc:81:e4:e7:97:bf:
                    96:cd:92:72:97:0a:86:49:72:06:4e:52:7d:5e:91:
                    29:f8:3c:24:27:01:c0:d9:46:16:d4:2c:f1:92:27:
                    bb:ec:3b:7b:d1:15:a7:7f:0c:21:92:f9:fc:ee:dd:
                    ae:9a:f0:5d:48:c5:74:91:71:2d:a1:1f:3f:a2:68:
                    9f:aa:d3:0e:1d:4a:93:c2:4e:21:04:6d:39:ea:51:
                    2b:42:39:de:a2:38:08:ae:08:09:e6:73:5d:29:64:
                    e4:14:f1:2c:57:9c:5a:a5:81:df:b5:a4:01:09:91:
                    b7:d1:18:fd:36:fb:ad:28:c0:2f:3b:9f:62:7e:aa:
                    2f:fa:3d:5c:5c:24:8b:b4:aa:11:f4:96:c8:f9:a7:
                    0b:67:66:77:97:47:1c:33:16:f5:ab:bd:61:82:05:
                    10:07:62:b2:d8:43:dc:7f:66:25:1d:d6:d3:17:8d:
                    cb:a0:c5:01:e0:47:6c:1f:88:95:d8:0e:06:80:e9:
                    df:98:a2:71:da:14:0a:aa:1a:58:9f:96:a7:cf:40:
                    50:ee:a7:19:1e:82:f6:0d:2a:7b:b7:0c:ac:14:20:
                    3d:e6:98:31:a4:f1:e2:ed:fe:dc:c2:99:fa:96:17:
                    66:dc:d5:79:c4:65:0e:1a:ac:08:d3:28:0d:70:35:
                    d9:b3
                Exponent: 65537 (0x10001)
        X509v3 extensions:
            X509v3 Key Usage: 
                Digital Signature, Key Encipherment
            X509v3 Basic Constraints: 
                CA:FALSE
            Netscape Cert Type: 
                SSL Server
            Netscape Comment: 
                OpenSSL Generated Server Certificate
            X509v3 Subject Key Identifier: 
                60:FC:99:5C:DB:18:59:ED:2A:A1:1A:58:79:D7:58:B3:0F:F7:F3:66
            X509v3 Authority Key Identifier: 
                keyid:F4:A7:C0:CC:91:46:AF:64:F3:91:F2:27:F8:C8:B2:6F:8A:87:32:73
                DirName:/C=DE/ST=Hessen/O=privacyidea/CN=CA001
                serial:FB:C8:EB:AC:83:CD:12:07

            X509v3 Extended Key Usage: 
                TLS Web Server Authentication
    Signature Algorithm: sha256WithRSAEncryption
         7f:b6:00:72:92:05:ba:71:8e:0a:68:a2:da:98:46:96:b8:fd:
         d7:99:9b:01:89:22:3f:dd:6a:4c:e2:09:6c:e1:bd:dd:91:8b:
         61:d3:a3:4e:8a:b3:50:95:dd:18:cd:2a:2a:92:f3:f9:e3:df:
         3e:b6:13:18:41:cd:a8:c0:9a:b5:6f:d3:c0:32:39:27:c1:a5:
         c2:fe:39:01:ee:fb:ef:03:cc:d4:c5:08:9f:d8:1f:40:e0:0c:
         ac:45:4c:bf:a2:e7:ec:d6:b8:b7:db:09:59:dc:bc:39:af:57:
         ee:e1:e6:04:bc:81:1a:0c:f7:c4:d1:0c:29:49:4d:30:da:45:
         8a:96:15:7e:dc:85:3c:86:5d:fa:03:3a:13:e3:12:e9:f7:de:
         8d:0d:69:77:82:d9:b6:82:4a:25:18:e6:e4:37:a4:fc:05:22:
         18:1b:2e:ff:2e:95:03:41:1e:16:50:c9:82:52:62:a2:bd:20:
         bd:4f:06:50:39:38:c1:42:c5:9d:f9:98:4a:52:00:b1:c7:ee:
         13:a9:45:76:af:20:ff:26:d3:74:10:bc:69:19:65:8c:f8:96:
         6a:06:95:67:4c:15:46:23:05:22:ab:1a:d3:dd:ac:07:f1:b6:
         ad:d4:ce:2e:a6:a4:ad:ce:c1:12:aa:c0:65:c9:66:e8:5e:4b:
         dc:7d:3d:e4
-----BEGIN CERTIFICATE-----
MIIEIjCCAwqgAwIBAgIEEAAA2TANBgkqhkiG9w0BAQsFADBEMQswCQYDVQQGEwJE
RTEPMA0GA1UECAwGSGVzc2VuMRQwEgYDVQQKDAtwcml2YWN5aWRlYTEOMAwGA1UE
AwwFQ0EwMDEwHhcNMjIwNzI4MDcyODAzWhcNMjMwNzI4MDcyODAzWjBQMQ8wDQYD
VQQLDAZyZWFsbTExEjAQBgNVBAMMCWNvcm5lbGl1czEpMCcGCSqGSIb3DQEJARYa
dXNlckBsb2NhbGhvc3QubG9jYWxkb21haW4wggEiMA0GCSqGSIb3DQEBAQUAA4IB
DwAwggEKAoIBAQDMPm9a8TvqOcyB5OeXv5bNknKXCoZJcgZOUn1ekSn4PCQnAcDZ
RhbULPGSJ7vsO3vRFad/DCGS+fzu3a6a8F1IxXSRcS2hHz+iaJ+q0w4dSpPCTiEE
bTnqUStCOd6iOAiuCAnmc10pZOQU8SxXnFqlgd+1pAEJkbfRGP02+60owC87n2J+
qi/6PVxcJIu0qhH0lsj5pwtnZneXRxwzFvWrvWGCBRAHYrLYQ9x/ZiUd1tMXjcug
xQHgR2wfiJXYDgaA6d+YonHaFAqqGliflqfPQFDupxkegvYNKnu3DKwUID3mmDGk
8eLt/tzCmfqWF2bc1XnEZQ4arAjTKA1wNdmzAgMBAAGjggEOMIIBCjALBgNVHQ8E
BAMCBaAwCQYDVR0TBAIwADARBglghkgBhvhCAQEEBAMCBkAwMwYJYIZIAYb4QgEN
BCYWJE9wZW5TU0wgR2VuZXJhdGVkIFNlcnZlciBDZXJ0aWZpY2F0ZTAdBgNVHQ4E
FgQUYPyZXNsYWe0qoRpYeddYsw/382YwdAYDVR0jBG0wa4AU9KfAzJFGr2TzkfIn
+Miyb4qHMnOhSKRGMEQxCzAJBgNVBAYTAkRFMQ8wDQYDVQQIDAZIZXNzZW4xFDAS
BgNVBAoMC3ByaXZhY3lpZGVhMQ4wDAYDVQQDDAVDQTAwMYIJAPvI66yDzRIHMBMG
A1UdJQQMMAoGCCsGAQUFBwMBMA0GCSqGSIb3DQEBCwUAA4IBAQB/tgBykgW6cY4K
aKLamEaWuP3XmZsBiSI/3WpM4gls4b3dkYth06NOirNQld0YzSoqkvP5498+thMY
Qc2owJq1b9PAMjknwaXC/jkB7vvvA8zUxQif2B9A4AysRUy/oufs1ri32wlZ3Lw5
r1fu4eYEvIEaDPfE0QwpSU0w2kWKlhV+3IU8hl36AzoT4xLp996NDWl3gtm2gkol
GObkN6T8BSIYGy7/LpUDQR4WUMmCUmKivSC9TwZQOTjBQsWd+ZhKUgCxx+4TqUV2
ryD/JtN0ELxpGWWM+JZqBpVnTBVGIwUiqxrT3awH8bat1M4upqStzsESqsBlyWbo
XkvcfT3k
-----END CERTIFICATE-----
