Certificate:
    Data:
        Version: 3 (0x2)
        Serial Number: 268435670 (0x100000d6)
        Signature Algorithm: sha256WithRSAEncryption
        Issuer: C=DE, ST=Hessen, O=privacyidea, CN=CA001
        Validity
            Not Before: Jul 28 07:17:57 2022 GMT
            Not After : Jul 28 07:17:57 2023 GMT
        Subject: CN=selfservice,CN=user,O=realm1/emailAddress=meine
        Subject Public Key Info:
            Public Key Algorithm: rsaEncryption
                RSA Public-Key: (2048 bit)
                Modulus:
                    00:cf:3c:d4:33:0e:12:c4:e6:da:cd:b6:56:a1:1c:
                    26:bb:26:1c:8a:4a:73:a8:58:8a:b6:1e:b3:8b:99:
                    d2:1d:07:c2:92:89:79:c0:69:d8:c8:df:28:61:98:
                    1e:b3:fe:ae:2b:bd:78:a9:f7:6e:47:dc:a3:a0:16:
                    8c:85:02:c1:4e:92:fd:72:6e:f0:c8:03:29:9b:b8:
                    00:6e:c0:83:95:c8:34:20:36:9c:b3:e5:e4:e6:76:
                    73:a3:1a:ad:40:96:e0:53:54:00:ec:76:79:9a:c6:
                    0d:7e:b6:bd:29:ec:83:f3:cb:89:a4:cb:6c:00:ba:
                    0c:c5:78:0f:ff:69:b8:94:f4:04:70:43:3f:d8:9e:
                    d7:a7:fb:5d:ce:75:8e:da:e7:c4:07:b1:9d:de:6f:
                    88:4b:b6:4d:9a:cf:f9:bc:fa:9f:cd:32:6d:f6:3a:
                    0b:0d:23:42:78:ec:97:42:bf:0e:4d:60:56:e1:d3:
                    02:f2:19:cb:84:57:90:e5:70:a1:a2:83:35:86:e2:
                    da:86:9f:f9:8a:c4:79:b3:52:28:da:cb:bb:34:ca:
                    d3:da:91:4a:cf:8d:76:a2:b2:6b:9b:f9:96:fd:09:
                    2a:da:11:23:4d:f0:cb:d6:b2:b1:0e:12:6c:9a:19:
                    65:98:87:ca:e4:ee:24:ce:44:ac:90:8f:9d:1b:c5:
                    2a:9d
                Exponent: 65537 (0x10001)
        X509v3 extensions:
            X509v3 Key Usage: 
                Digital Signature, Key Encipherment
            X509v3 Basic Constraints: 
                CA:FALSE
            Netscape Cert Type: 
                SSL Server
            Netscape Comment: 
                OpenSSL Generated Server Certificate
            X509v3 Subject Key Identifier: 
                4D:07:90:AD:FF:1D:0D:E7:1A:DD:D6:2E:FA:BA:34:CB:AA:1F:24:C6
            X509v3 Authority Key Identifier: 
                keyid:F4:A7:C0:CC:91:46:AF:64:F3:91:F2:27:F8:C8:B2:6F:8A:87:32:73
                DirName:/C=DE/ST=Hessen/O=privacyidea/CN=CA001
                serial:FB:C8:EB:AC:83:CD:12:07

            X509v3 Extended Key Usage: 
                TLS Web Server Authentication
    Signature Algorithm: sha256WithRSAEncryption
         91:e6:74:93:b9:70:30:63:7a:77:03:7d:5d:d0:5b:86:6d:56:
         af:0b:80:8a:7a:79:91:be:30:a3:a7:f1:35:2b:00:01:f0:ce:
         ef:b8:a3:f1:d7:1b:4b:cb:d9:22:82:88:f3:fa:bb:83:09:67:
         71:a5:c8:8e:77:af:9b:4c:b5:af:54:d5:24:2a:01:8f:bc:7d:
         9c:27:09:d2:bc:e7:b7:61:0c:84:d0:31:6c:72:28:7e:b7:c9:
         40:4f:33:8e:46:e5:2a:a3:bd:1b:19:f6:25:e1:49:92:ea:1e:
         7c:1c:88:44:87:d0:f3:05:51:0b:71:a1:83:18:6c:dc:8b:ce:
         75:bb:56:17:80:0e:15:90:a3:27:3c:7e:c3:a7:20:ce:7d:38:
         45:40:1c:93:4c:e8:ab:9f:77:8e:00:1e:3f:4a:0f:7f:c0:3e:
         c4:e5:95:ca:cb:82:6e:2c:e3:1c:4e:f0:11:a6:05:ed:b7:a2:
         a4:75:98:4a:fc:08:0e:e0:90:49:c7:38:88:c7:d1:7e:bf:b0:
         32:79:66:ea:88:bc:0f:25:98:97:c9:47:6e:ce:2b:7e:63:f6:
         69:25:57:9b:00:be:84:47:52:cb:98:f9:f9:b2:e1:64:8c:fe:
         88:64:82:87:83:82:c0:85:d2:1a:9a:45:5d:39:cb:5b:08:ad:
         4f:6a:b9:36
-----BEGIN CERTIFICATE-----
MIIEDzCCAvegAwIBAgIEEAAA1jANBgkqhkiG9w0BAQsFADBEMQswCQYDVQQGEwJE
RTEPMA0GA1UECAwGSGVzc2VuMRQwEgYDVQQKDAtwcml2YWN5aWRlYTEOMAwGA1UE
AwwFQ0EwMDEwHhcNMjIwNzI4MDcxNzU3WhcNMjMwNzI4MDcxNzU3WjA9MSUwIwYD
VQQDDBxzZWxmc2VydmljZSxDTj11c2VyLE89cmVhbG0xMRQwEgYJKoZIhvcNAQkB
FgVtZWluZTCCASIwDQYJKoZIhvcNAQEBBQADggEPADCCAQoCggEBAM881DMOEsTm
2s22VqEcJrsmHIpKc6hYirYes4uZ0h0HwpKJecBp2MjfKGGYHrP+riu9eKn3bkfc
o6AWjIUCwU6S/XJu8MgDKZu4AG7Ag5XINCA2nLPl5OZ2c6MarUCW4FNUAOx2eZrG
DX62vSnsg/PLiaTLbAC6DMV4D/9puJT0BHBDP9ie16f7Xc51jtrnxAexnd5viEu2
TZrP+bz6n80ybfY6Cw0jQnjsl0K/Dk1gVuHTAvIZy4RXkOVwoaKDNYbi2oaf+YrE
ebNSKNrLuzTK09qRSs+NdqKya5v5lv0JKtoRI03wy9aysQ4SbJoZZZiHyuTuJM5E
rJCPnRvFKp0CAwEAAaOCAQ4wggEKMAsGA1UdDwQEAwIFoDAJBgNVHRMEAjAAMBEG
CWCGSAGG+EIBAQQEAwIGQDAzBglghkgBhvhCAQ0EJhYkT3BlblNTTCBHZW5lcmF0
ZWQgU2VydmVyIENlcnRpZmljYXRlMB0GA1UdDgQWBBRNB5Ct/x0N5xrd1i76ujTL
qh8kxjB0BgNVHSMEbTBrgBT0p8DMkUavZPOR8if4yLJviocyc6FIpEYwRDELMAkG
A1UEBhMCREUxDzANBgNVBAgMBkhlc3NlbjEUMBIGA1UECgwLcHJpdmFjeWlkZWEx
DjAMBgNVBAMMBUNBMDAxggkA+8jrrIPNEgcwEwYDVR0lBAwwCgYIKwYBBQUHAwEw
DQYJKoZIhvcNAQELBQADggEBAJHmdJO5cDBjencDfV3QW4ZtVq8LgIp6eZG+MKOn
8TUrAAHwzu+4o/HXG0vL2SKCiPP6u4MJZ3GlyI53r5tMta9U1SQqAY+8fZwnCdK8
57dhDITQMWxyKH63yUBPM45G5SqjvRsZ9iXhSZLqHnwciESH0PMFUQtxoYMYbNyL
znW7VheADhWQoyc8fsOnIM59OEVAHJNM6Kufd44AHj9KD3/APsTllcrLgm4s4xxO
8BGmBe23oqR1mEr8CA7gkEnHOIjH0X6/sDJ5ZuqIvA8lmJfJR27OK35j9mklV5sA
voRHUsuY+fmy4WSM/ohkgoeDgsCF0hqaRV05y1sIrU9quTY=
-----END CERTIFICATE-----
