Certificate:
    Data:
        Version: 3 (0x2)
        Serial Number: 268435669 (0x100000d5)
        Signature Algorithm: sha256WithRSAEncryption
        Issuer: C=DE, ST=Hessen, O=privacyidea, CN=CA001
        Validity
            Not Before: Jul 28 07:17:05 2022 GMT
            Not After : Jul 28 07:17:05 2023 GMT
        Subject: OU=realm1, CN=cornelius/emailAddress=user@localhost.localdomain
        Subject Public Key Info:
            Public Key Algorithm: rsaEncryption
                RSA Public-Key: (2048 bit)
                Modulus:
                    00:d3:68:2d:6b:89:61:24:eb:8d:54:64:35:ad:40:
                    9c:a3:bc:10:82:60:57:3b:52:42:54:8e:c1:5b:8d:
                    de:53:2b:92:42:cc:65:30:da:8f:aa:ed:bf:67:35:
                    4b:a8:a1:13:97:48:cf:3e:7f:3b:37:24:3f:99:20:
                    39:85:88:a4:1e:df:c5:96:e0:cc:4d:b8:b0:d2:55:
                    7f:24:ff:fb:23:1c:3b:de:bc:01:92:43:7b:f3:20:
                    ea:77:9e:eb:27:44:f2:01:5a:73:e7:44:ac:19:90:
                    a2:31:05:41:fc:c6:81:45:99:88:38:75:18:68:ee:
                    a5:bc:fe:38:5e:14:03:46:d0:5b:35:9e:a9:33:d1:
                    25:8b:8b:74:30:27:f2:75:c3:1b:04:ff:2f:a3:78:
                    21:1a:63:2e:fa:2c:f4:d9:a7:d7:ef:dd:06:44:22:
                    01:4a:6f:a6:34:a1:70:97:56:1c:3f:69:83:3c:83:
                    df:32:9a:e4:f0:07:9f:a4:8d:b6:77:ac:ec:73:12:
                    44:0a:97:08:74:b0:14:88:64:67:fb:89:ac:25:89:
                    a3:a9:84:44:8f:9a:bf:68:fe:cb:64:34:3f:29:4b:
                    a0:bc:cb:4b:a6:b0:46:7a:7f:5a:7a:50:e1:42:08:
                    08:81:f9:1c:a7:3b:12:ed:48:5f:cb:53:17:b3:c5:
                    95:49
                Exponent: 65537 (0x10001)
        X509v3 extensions:
            X509v3 Key Usage: 
                Digital Signature, Key Encipherment
            X509v3 Basic Constraints: 
                CA:FALSE
            Netscape Cert Type: 
                SSL Server
            Netscape Comment: 
                OpenSSL Generated Server Certificate
            X509v3 Subject Key Identifier: 
                18:0F:54:C5:C9:C4:03:E2:0A:BC:97:34:89:F0:08:45:C6:15:01:2C
            X509v3 Authority Key Identifier: 
                keyid:F4:A7:C0:CC:91:46:AF:64:F3:91:F2:27:F8:C8:B2:6F:8A:87:32:73
                DirName:/C=DE/ST=Hessen/O=privacyidea/CN=CA001
                serial:FB:C8:EB:AC:83:CD:12:07

            X509v3 Extended Key Usage: 
                TLS Web Server Authentication
    Signature Algorithm: sha256WithRSAEncryption
         3b:f1:93:4f:75:2e:6d:38:d4:7a:7a:07:c5:d8:20:e5:df:5f:
         3d:e1:e0:c7:10:00:9b:bd:01:85:77:5e:41:99:0f:9b:4f:8a:
         1b:e3:df:c6:0d:2e:52:c2:4e:9e:85:91:35:9a:cf:f5:4b:b6:
         fb:23:b8:cc:f6:78:a9:92:ae:47:fe:6e:e2:cc:c2:29:c0:fe:
         7e:1b:33:7b:ca:6b:7c:fa:28:20:bf:37:9e:0e:41:64:07:bf:
         44:45:b1:48:19:7b:cf:cd:08:65:ed:6a:64:4a:66:1c:68:ba:
         42:10:2a:60:b9:43:f3:6e:4f:a4:97:e7:15:55:d9:29:3f:70:
         ea:d0:ee:d9:88:d1:2d:af:4b:6e:5a:96:59:c4:59:33:cf:24:
         d4:70:aa:d2:12:92:3a:10:78:dd:95:46:f4:fa:9a:e4:8b:4d:
         7b:1d:01:8d:d9:67:28:6b:44:72:5d:85:dd:61:2a:5b:fc:64:
         6c:a2:d4:16:a9:95:7b:e0:04:60:e9:6f:b6:4a:10:97:bc:a2:
         5b:d4:bc:ce:a1:0f:a9:81:1e:0d:f3:38:0b:7b:0e:a2:36:ba:
         c1:df:18:93:fa:73:51:37:fd:c1:c7:da:81:75:74:35:99:e9:
         c4:36:da:f6:2e:0e:49:8f:f9:1f:14:31:af:2f:68:67:d8:6c:
         e5:2e:59:fd
-----BEGIN CERTIFICATE-----
MIIEIjCCAwqgAwIBAgIEEAAA1TANBgkqhkiG9w0BAQsFADBEMQswCQYDVQQGEwJE
RTEPMA0GA1UECAwGSGVzc2VuMRQwEgYDVQQKDAtwcml2YWN5aWRlYTEOMAwGA1UE
AwwFQ0EwMDEwHhcNMjIwNzI4MDcxNzA1WhcNMjMwNzI4MDcxNzA1WjBQMQ8wDQYD
VQQLDAZyZWFsbTExEjAQBgNVBAMMCWNvcm5lbGl1czEpMCcGCSqGSIb3DQEJARYa
dXNlckBsb2NhbGhvc3QubG9jYWxkb21haW4wggEiMA0GCSqGSIb3DQEBAQUAA4IB
DwAwggEKAoIBAQDTaC1riWEk641UZDWtQJyjvBCCYFc7UkJUjsFbjd5TK5JCzGUw
2o+q7b9nNUuooROXSM8+fzs3JD+ZIDmFiKQe38WW4MxNuLDSVX8k//sjHDvevAGS
Q3vzIOp3nusnRPIBWnPnRKwZkKIxBUH8xoFFmYg4dRho7qW8/jheFANG0Fs1nqkz
0SWLi3QwJ/J1wxsE/y+jeCEaYy76LPTZp9fv3QZEIgFKb6Y0oXCXVhw/aYM8g98y
muTwB5+kjbZ3rOxzEkQKlwh0sBSIZGf7iawliaOphESPmr9o/stkND8pS6C8y0um
sEZ6f1p6UOFCCAiB+RynOxLtSF/LUxezxZVJAgMBAAGjggEOMIIBCjALBgNVHQ8E
BAMCBaAwCQYDVR0TBAIwADARBglghkgBhvhCAQEEBAMCBkAwMwYJYIZIAYb4QgEN
BCYWJE9wZW5TU0wgR2VuZXJhdGVkIFNlcnZlciBDZXJ0aWZpY2F0ZTAdBgNVHQ4E
FgQUGA9UxcnEA+IKvJc0ifAIRcYVASwwdAYDVR0jBG0wa4AU9KfAzJFGr2TzkfIn
+Miyb4qHMnOhSKRGMEQxCzAJBgNVBAYTAkRFMQ8wDQYDVQQIDAZIZXNzZW4xFDAS
BgNVBAoMC3ByaXZhY3lpZGVhMQ4wDAYDVQQDDAVDQTAwMYIJAPvI66yDzRIHMBMG
A1UdJQQMMAoGCCsGAQUFBwMBMA0GCSqGSIb3DQEBCwUAA4IBAQA78ZNPdS5tONR6
egfF2CDl31894eDHEACbvQGFd15BmQ+bT4ob49/GDS5Swk6ehZE1ms/1S7b7I7jM
9nipkq5H/m7izMIpwP5+GzN7ymt8+iggvzeeDkFkB79ERbFIGXvPzQhl7WpkSmYc
aLpCECpguUPzbk+kl+cVVdkpP3Dq0O7ZiNEtr0tuWpZZxFkzzyTUcKrSEpI6EHjd
lUb0+prki017HQGN2Wcoa0RyXYXdYSpb/GRsotQWqZV74ARg6W+2ShCXvKJb1LzO
oQ+pgR4N8zgLew6iNrrB3xiT+nNRN/3Bx9qBdXQ1menENtr2Lg5Jj/kfFDGvL2hn
2GzlLln9
-----END CERTIFICATE-----
