Certificate:
    Data:
        Version: 3 (0x2)
        Serial Number: 268435671 (0x100000d7)
        Signature Algorithm: sha256WithRSAEncryption
        Issuer: C=DE, ST=Hessen, O=privacyidea, CN=CA001
        Validity
            Not Before: Jul 28 07:27:41 2022 GMT
            Not After : Jul 28 07:27:41 2023 GMT
        Subject: CN=cn=cornelius
        Subject Public Key Info:
            Public Key Algorithm: rsaEncryption
                RSA Public-Key: (2048 bit)
                Modulus:
                    00:ce:a4:39:30:25:73:e4:9d:e6:37:3b:85:59:83:
                    ef:a3:6e:f9:83:b9:f7:48:b0:0b:d5:e8:05:40:61:
                    cd:c5:5a:bc:11:2f:5b:4e:d0:4f:b8:d0:e8:7f:05:
                    ab:ad:24:0b:90:d4:3f:60:ec:15:b6:4e:be:8e:d9:
                    26:ab:f2:2f:7f:35:c2:a6:a1:bc:52:3a:d9:88:fb:
                    b3:fa:71:20:b9:51:0e:f8:af:0d:16:be:bd:5d:b9:
                    ab:30:d5:ac:6b:3c:bc:ee:28:4a:4f:6f:d4:09:15:
                    f7:98:af:77:db:36:15:2e:1e:ee:0f:d0:d9:60:ad:
                    db:b9:c4:3f:c6:25:32:f9:e3:e9:50:b8:ec:84:a0:
                    c4:d2:9c:fd:ce:25:80:85:7e:3a:ad:4c:a7:40:1b:
                    0a:58:18:9f:c2:5e:36:e1:d1:44:e9:46:b6:dc:b4:
                    28:a2:ec:ed:02:f7:25:79:e1:86:8e:69:67:52:ee:
                    82:21:b7:84:2d:cc:e7:a8:39:57:7d:a3:1e:e9:50:
                    63:77:29:ab:e4:a5:ff:dc:ee:4c:4b:5e:08:2b:62:
                    08:2d:75:b8:26:6c:93:eb:f5:45:ea:cd:83:58:53:
                    15:46:e6:6b:43:c1:2f:d9:88:4b:3d:d5:fd:0c:ff:
                    51:52:ed:54:fb:27:2d:59:ef:4c:50:ce:71:cd:eb:
                    5a:99
                Exponent: 65537 (0x10001)
        X509v3 extensions:
            X509v3 Key Usage: 
                Digital Signature, Key Encipherment
            X509v3 Basic Constraints: 
                CA:FALSE
            Netscape Cert Type: 
                SSL Server
            Netscape Comment: 
                OpenSSL Generated Server Certificate
            X509v3 Subject Key Identifier: 
                0E:D5:BA:4E:7D:92:57:15:FD:61:4E:34:5B:E9:62:D0:20:1C:7D:08
            X509v3 Authority Key Identifier: 
                keyid:F4:A7:C0:CC:91:46:AF:64:F3:91:F2:27:F8:C8:B2:6F:8A:87:32:73
                DirName:/C=DE/ST=Hessen/O=privacyidea/CN=CA001
                serial:FB:C8:EB:AC:83:CD:12:07

            X509v3 Extended Key Usage: 
                TLS Web Server Authentication
    Signature Algorithm: sha256WithRSAEncryption
         3a:6b:66:32:c8:bf:cd:38:24:08:8e:82:aa:3b:42:ee:64:78:
         8e:f3:da:78:f7:2f:3f:c3:3a:3a:df:73:f4:4d:a0:d4:3d:2c:
         89:db:2d:20:d6:4e:7f:25:00:9c:c0:ac:d5:95:db:fc:4d:35:
         41:34:a1:c6:15:70:98:be:3b:a5:77:b7:25:b8:99:65:67:69:
         9a:ba:d0:e5:04:12:84:1f:9b:ed:d4:b4:87:35:cd:54:a5:50:
         03:72:fb:8c:72:f1:e2:6e:4a:12:de:9c:dd:0e:dc:4b:ed:66:
         1b:b0:29:28:ac:96:48:f5:79:36:06:b3:6c:9a:31:a8:ab:2a:
         02:c3:42:6b:8e:3a:f0:ff:0a:63:93:42:5e:97:a7:ce:48:27:
         3f:dd:8a:42:10:53:43:b3:ca:53:7d:7b:91:04:e3:69:d6:26:
         d8:d7:4f:27:5b:59:da:d4:62:bf:e5:3f:42:b2:8d:19:1b:b1:
         10:06:d7:e8:4b:41:6f:7b:d7:b9:8a:8a:d6:ae:52:4f:32:80:
         5b:12:f4:28:c0:dc:9a:8c:01:b1:4f:9f:b2:91:fd:43:a0:85:
         e5:bf:51:92:d1:f8:cc:d5:49:67:6f:af:6f:c2:60:70:63:ff:
         1f:75:d1:27:a9:1d:ac:54:39:d2:a8:7d:7b:dc:09:e0:22:6f:
         20:08:63:3c
-----BEGIN CERTIFICATE-----
MIID6TCCAtGgAwIBAgIEEAAA1zANBgkqhkiG9w0BAQsFADBEMQswCQYDVQQGEwJE
RTEPMA0GA1UECAwGSGVzc2VuMRQwEgYDVQQKDAtwcml2YWN5aWRlYTEOMAwGA1UE
AwwFQ0EwMDEwHhcNMjIwNzI4MDcyNzQxWhcNMjMwNzI4MDcyNzQxWjAXMRUwEwYD
VQQDDAxjbj1jb3JuZWxpdXMwggEiMA0GCSqGSIb3DQEBAQUAA4IBDwAwggEKAoIB
AQDOpDkwJXPkneY3O4VZg++jbvmDufdIsAvV6AVAYc3FWrwRL1tO0E+40Oh/Baut
JAuQ1D9g7BW2Tr6O2Sar8i9/NcKmobxSOtmI+7P6cSC5UQ74rw0Wvr1duasw1axr
PLzuKEpPb9QJFfeYr3fbNhUuHu4P0Nlgrdu5xD/GJTL54+lQuOyEoMTSnP3OJYCF
fjqtTKdAGwpYGJ/CXjbh0UTpRrbctCii7O0C9yV54YaOaWdS7oIht4QtzOeoOVd9
ox7pUGN3Kavkpf/c7kxLXggrYggtdbgmbJPr9UXqzYNYUxVG5mtDwS/ZiEs91f0M
/1FS7VT7Jy1Z70xQznHN61qZAgMBAAGjggEOMIIBCjALBgNVHQ8EBAMCBaAwCQYD
VR0TBAIwADARBglghkgBhvhCAQEEBAMCBkAwMwYJYIZIAYb4QgENBCYWJE9wZW5T
U0wgR2VuZXJhdGVkIFNlcnZlciBDZXJ0aWZpY2F0ZTAdBgNVHQ4EFgQUDtW6Tn2S
VxX9YU40W+li0CAcfQgwdAYDVR0jBG0wa4AU9KfAzJFGr2TzkfIn+Miyb4qHMnOh
SKRGMEQxCzAJBgNVBAYTAkRFMQ8wDQYDVQQIDAZIZXNzZW4xFDASBgNVBAoMC3By
aXZhY3lpZGVhMQ4wDAYDVQQDDAVDQTAwMYIJAPvI66yDzRIHMBMGA1UdJQQMMAoG
CCsGAQUFBwMBMA0GCSqGSIb3DQEBCwUAA4IBAQA6a2YyyL/NOCQIjoKqO0LuZHiO
89p49y8/wzo633P0TaDUPSyJ2y0g1k5/JQCcwKzVldv8TTVBNKHGFXCYvjuld7cl
uJllZ2mautDlBBKEH5vt1LSHNc1UpVADcvuMcvHibkoS3pzdDtxL7WYbsCkorJZI
9Xk2BrNsmjGoqyoCw0Jrjjrw/wpjk0Jel6fOSCc/3YpCEFNDs8pTfXuRBONp1ibY
108nW1na1GK/5T9Cso0ZG7EQBtfoS0Fve9e5iorWrlJPMoBbEvQowNyajAGxT5+y
kf1DoIXlv1GS0fjM1Ulnb69vwmBwY/8fddEnqR2sVDnSqH173AngIm8gCGM8
-----END CERTIFICATE-----
