Certificate:
    Data:
        Version: 3 (0x2)
        Serial Number: 268435672 (0x100000d8)
        Signature Algorithm: sha256WithRSAEncryption
        Issuer: C=DE, ST=Hessen, O=privacyidea, CN=CA001
        Validity
            Not Before: Jul 28 07:28:03 2022 GMT
            Not After : Jul 28 07:28:03 2023 GMT
        Subject: C=DE, ST=Hessen, O=privacyidea, CN=requester.localdomain
        Subject Public Key Info:
            Public Key Algorithm: rsaEncryption
                RSA Public-Key: (2048 bit)
                Modulus:
                    00:cd:be:14:4f:fa:ce:01:3f:42:22:1b:1d:9c:af:
                    dd:92:d2:7f:db:6c:b7:3e:39:43:43:6b:13:03:f1:
                    05:f4:07:74:bc:76:69:28:0b:af:19:8e:d7:fc:e3:
                    cd:c6:58:f2:ca:7f:08:6d:53:fc:07:02:44:24:c6:
                    b4:34:4c:8c:04:fe:33:0e:40:e2:20:ba:02:73:5a:
                    f7:f5:4f:63:6e:cc:c6:b6:df:54:1d:37:39:7d:51:
                    36:26:5f:bd:dc:3f:a8:8b:6b:a2:ae:b6:9d:d6:21:
                    e7:df:41:b8:7a:28:2a:68:48:ca:a8:2d:ed:e1:e9:
                    46:5e:5a:72:6d:b4:84:38:87:91:fd:94:11:0b:28:
                    84:c6:c2:2f:2a:fb:01:f9:36:7a:09:75:d1:33:88:
                    3c:73:41:5b:c8:bf:94:89:70:a1:f0:c0:b9:2e:50:
                    53:1e:b1:17:64:69:f4:2d:81:e0:a9:0d:0e:32:e9:
                    ba:55:8a:85:f1:1b:6f:49:79:b4:7f:88:c3:0d:3e:
                    54:88:9b:3d:1f:38:8c:04:f3:ee:6a:63:2b:f5:c6:
                    db:b4:83:aa:c4:78:41:3a:7d:4b:e1:c8:3e:71:ca:
                    1b:61:59:ea:c6:c4:ca:32:5e:c9:e9:bf:12:29:e6:
                    c6:c3:63:fe:a0:55:da:7a:f1:60:98:4d:26:ed:fa:
                    70:2d
                Exponent: 65537 (0x10001)
        X509v3 extensions:
            X509v3 Key Usage: 
                Digital Signature, Key Encipherment
            X509v3 Basic Constraints: 
                CA:FALSE
            Netscape Cert Type: 
                SSL Server
            Netscape Comment: 
                OpenSSL Generated Server Certificate
            X509v3 Subject Key Identifier: 
                53:3F:ED:5D:09:07:B3:65:7B:AB:45:C9:24:5B:09:77:80:0A:96:ED
            X509v3 Authority Key Identifier: 
                keyid:F4:A7:C0:CC:91:46:AF:64:F3:91:F2:27:F8:C8:B2:6F:8A:87:32:73
                DirName:/C=DE/ST=Hessen/O=privacyidea/CN=CA001
                serial:FB:C8:EB:AC:83:CD:12:07

            X509v3 Extended Key Usage: 
                TLS Web Server Authentication
    Signature Algorithm: sha256WithRSAEncryption
         b5:89:00:6b:cb:93:6d:ce:b9:64:f7:ab:19:64:94:71:8f:09:
         1b:f9:43:3a:31:b4:03:48:8c:99:6c:17:e8:5e:28:90:b5:db:
         83:7f:f9:45:f2:a9:4a:30:d9:0d:2b:70:71:1d:d9:b4:85:81:
         b4:10:a2:b4:02:72:14:c9:52:cf:64:61:d9:60:a2:23:aa:06:
         d2:5d:48:2b:0d:b4:29:0a:06:6c:88:7e:0d:2c:b1:25:f3:14:
         4e:d7:c5:0c:aa:19:8a:b9:c7:10:2e:83:04:22:81:9b:78:d4:
         1d:28:72:15:57:ce:7b:f4:3e:a8:68:d7:a9:d6:55:5c:d2:35:
         f0:92:5d:56:ce:5c:f6:98:ef:87:fb:fe:56:eb:47:95:63:88:
         cd:cd:ac:ea:5a:6e:db:f2:da:86:53:41:7c:a8:8f:c5:c3:8e:
         ca:0c:3e:fe:b7:c7:93:ca:e2:f0:ea:01:15:87:90:78:ad:3d:
         4b:b6:6d:ca:57:4b:64:79:60:26:71:44:fb:11:ba:b0:49:2f:
         a4:58:4c:ae:7e:b9:cb:9e:f9:94:76:32:76:00:95:31:db:5e:
         a1:42:59:91:8c:f7:0b:60:76:b2:46:84:c5:3c:94:ad:da:5c:
         40:d3:0f:67:40:bb:16:55:57:b7:2d:67:7a:4f:57:3e:aa:1c:
         9b:e7:be:ab
-----BEGIN CERTIFICATE-----
MIIEJjCCAw6gAwIBAgIEEAAA2DANBgkqhkiG9w0BAQsFADBEMQswCQYDVQQGEwJE
RTEPMA0GA1UECAwGSGVzc2VuMRQwEgYDVQQKDAtwcml2YWN5aWRlYTEOMAwGA1UE
AwwFQ0EwMDEwHhcNMjIwNzI4MDcyODAzWhcNMjMwNzI4MDcyODAzWjBUMQswCQYD
VQQGEwJERTEPMA0GA1UECAwGSGVzc2VuMRQwEgYDVQQKDAtwcml2YWN5aWRlYTEe
MBwGA1UEAwwVcmVxdWVzdGVyLmxvY2FsZG9tYWluMIIBIjANBgkqhkiG9w0BAQEF
AAOCAQ8AMIIBCgKCAQEAzb4UT/rOAT9CIhsdnK/dktJ/22y3PjlDQ2sTA/EF9Ad0
vHZpKAuvGY7X/OPNxljyyn8IbVP8BwJEJMa0NEyMBP4zDkDiILoCc1r39U9jbszG
tt9UHTc5fVE2Jl+93D+oi2uirrad1iHn30G4eigqaEjKqC3t4elGXlpybbSEOIeR
/ZQRCyiExsIvKvsB+TZ6CXXRM4g8c0FbyL+UiXCh8MC5LlBTHrEXZGn0LYHgqQ0O
Mum6VYqF8RtvSXm0f4jDDT5UiJs9HziMBPPuamMr9cbbtIOqxHhBOn1L4cg+ccob
YVnqxsTKMl7J6b8SKebGw2P+oFXaevFgmE0m7fpwLQIDAQABo4IBDjCCAQowCwYD
VR0PBAQDAgWgMAkGA1UdEwQCMAAwEQYJYIZIAYb4QgEBBAQDAgZAMDMGCWCGSAGG
+EIBDQQmFiRPcGVuU1NMIEdlbmVyYXRlZCBTZXJ2ZXIgQ2VydGlmaWNhdGUwHQYD
VR0OBBYEFFM/7V0JB7Nle6tFySRbCXeACpbtMHQGA1UdIwRtMGuAFPSnwMyRRq9k
85HyJ/jIsm+KhzJzoUikRjBEMQswCQYDVQQGEwJERTEPMA0GA1UECAwGSGVzc2Vu
MRQwEgYDVQQKDAtwcml2YWN5aWRlYTEOMAwGA1UEAwwFQ0EwMDGCCQD7yOusg80S
BzATBgNVHSUEDDAKBggrBgEFBQcDATANBgkqhkiG9w0BAQsFAAOCAQEAtYkAa8uT
bc65ZPerGWSUcY8JG/lDOjG0A0iMmWwX6F4okLXbg3/5RfKpSjDZDStwcR3ZtIWB
tBCitAJyFMlSz2Rh2WCiI6oG0l1IKw20KQoGbIh+DSyxJfMUTtfFDKoZirnHEC6D
BCKBm3jUHShyFVfOe/Q+qGjXqdZVXNI18JJdVs5c9pjvh/v+VutHlWOIzc2s6lpu
2/LahlNBfKiPxcOOygw+/rfHk8ri8OoBFYeQeK09S7ZtyldLZHlgJnFE+xG6sEkv
pFhMrn65y575lHYydgCVMdteoUJZkYz3C2B2skaExTyUrdpcQNMPZ0C7FlVXty1n
ek9XPqocm+e+qw==
-----END CERTIFICATE-----
